target datalayout = "e-m:e-p270:32:32-p271:32:32-p272:64:64-i64:64-i128:128-f80:128-n8:16:32:64-S128"
target triple = "x86_64-pc-linux-gnu"

@Aig_TimeStamp.Buffer = internal global [100 x i8] zeroinitializer, align 16

; Function Attrs: nounwind uwtable
define ptr @Aig_TimeStamp() #0 {
  %1 = alloca ptr, align 8
  %2 = alloca i64, align 8
  call void @llvm.lifetime.start.p0(i64 8, ptr %1) #10
  call void @llvm.lifetime.start.p0(i64 8, ptr %2) #10
  %3 = call i64 @time(ptr noundef %2) #10
  %4 = call ptr @localtime(ptr noundef %2) #10
  %5 = call ptr @asctime(ptr noundef %4) #10
  store ptr %5, ptr %1, align 8, !tbaa !28
  %6 = load ptr, ptr %1, align 8, !tbaa !28
  %7 = load ptr, ptr %1, align 8, !tbaa !28
  %8 = call i64 @strlen(ptr noundef %7) #11
  %9 = sub i64 %8, 1
  %10 = getelementptr inbounds nuw i8, ptr %6, i64 %9
  store i8 0, ptr %10, align 1, !tbaa !25
  %11 = load ptr, ptr %1, align 8, !tbaa !28
  %12 = call ptr @strcpy(ptr noundef @Aig_TimeStamp.Buffer, ptr noundef %11) #10
  call void @llvm.lifetime.end.p0(i64 8, ptr %2) #10
  call void @llvm.lifetime.end.p0(i64 8, ptr %1) #10
  ret ptr @Aig_TimeStamp.Buffer
}