; Function Attrs: nounwind uwtable
define noundef nonnull ptr @Aig_TimeStamp() local_unnamed_addr #1 {
  %1 = alloca i64, align 8
  call void @llvm.lifetime.start.p0(i64 8, ptr nonnull %1) #25
  %2 = call i64 @time(ptr noundef nonnull %1) #25
  %3 = call ptr @localtime(ptr noundef nonnull %1) #25
  %4 = call ptr @asctime(ptr noundef %3) #25
  %5 = call i64 @strlen(ptr noundef nonnull dereferenceable(1) %4) #26
  %6 = getelementptr i8, ptr %4, i64 %5
  %7 = getelementptr i8, ptr %6, i64 -1
  store i8 0, ptr %7, align 1, !tbaa !26
  %8 = call ptr @strcpy(ptr noundef nonnull dereferenceable(1) @Aig_TimeStamp.Buffer, ptr noundef nonnull dereferenceable(1) %4) #25
  call void @llvm.lifetime.end.p0(i64 8, ptr nonnull %1) #25
  ret ptr @Aig_TimeStamp.Buffer
}